target datalayout = "e-m:e-p270:32:32-p271:32:32-p272:64:64-i64:64-i128:128-f80:128-n8:16:32:64-S128"
target triple = "x86_64-unknown-linux-gnu"

%struct.emitter_s = type { i32, ptr, ptr, i32, i8, i8 }

@.str.28 = private unnamed_addr constant [3 x i8] c"%s\00", align 1
@.str.29 = private unnamed_addr constant [1 x i8] zeroinitializer, align 1
@.str.30 = private unnamed_addr constant [8 x i8] c"\22%s\22:%s\00", align 1
@.str.31 = private unnamed_addr constant [2 x i8] c" \00", align 1
@.str.32 = private unnamed_addr constant [2 x i8] c",\00", align 1
@.str.33 = private unnamed_addr constant [2 x i8] c"\0A\00", align 1
@.str.34 = private unnamed_addr constant [2 x i8] c"\09\00", align 1

; Function Attrs: nounwind uwtable
define internal void @emitter_indent(ptr noundef %emitter) #0 {
entry:
  %emitter.addr = alloca ptr, align 8
  %amount = alloca i32, align 4
  %indent_str = alloca ptr, align 8
  %i = alloca i32, align 4
  store ptr %emitter, ptr %emitter.addr, align 8
  %0 = load ptr, ptr %emitter.addr, align 8
  %nesting_depth = getelementptr inbounds %struct.emitter_s, ptr %0, i32 0, i32 3
  %1 = load i32, ptr %nesting_depth, align 8
  store i32 %1, ptr %amount, align 4
  br label %do.body

do.body:                                          ; preds = %entry
  br label %do.end

do.end:                                           ; preds = %do.body
  %2 = load ptr, ptr %emitter.addr, align 8
  %output = getelementptr inbounds %struct.emitter_s, ptr %2, i32 0, i32 0
  %3 = load i32, ptr %output, align 8
  %cmp = icmp eq i32 %3, 0
  br i1 %cmp, label %if.then, label %if.else

if.then:                                          ; preds = %do.end
  store ptr @.str.34, ptr %indent_str, align 8
  br label %if.end

if.else:                                          ; preds = %do.end
  %4 = load i32, ptr %amount, align 4
  %mul = mul nsw i32 %4, 2
  store i32 %mul, ptr %amount, align 4
  store ptr @.str.31, ptr %indent_str, align 8
  br label %if.end

if.end:                                           ; preds = %if.else, %if.then
  store i32 0, ptr %i, align 4
  br label %for.cond

for.cond:                                         ; preds = %for.inc, %if.end
  %5 = load i32, ptr %i, align 4
  %6 = load i32, ptr %amount, align 4
  %cmp1 = icmp slt i32 %5, %6
  br i1 %cmp1, label %for.body, label %for.end

for.body:                                         ; preds = %for.cond
  %7 = load ptr, ptr %emitter.addr, align 8
  %8 = load ptr, ptr %indent_str, align 8
  call void (ptr, ptr, ...) @emitter_printf(ptr noundef %7, ptr noundef @.str.28, ptr noundef %8)
  br label %for.inc

for.inc:                                          ; preds = %for.body
  %9 = load i32, ptr %i, align 4
  %inc = add nsw i32 %9, 1
  store i32 %inc, ptr %i, align 4
  br label %for.cond, !llvm.loop !12

for.end:                                          ; preds = %for.cond
  ret void
}

; Function Attrs: nounwind uwtable
define internal void @emitter_json_key_prefix(ptr noundef %emitter) #0 {
entry:
  %emitter.addr = alloca ptr, align 8
  store ptr %emitter, ptr %emitter.addr, align 8
  br label %do.body

do.body:                                          ; preds = %entry
  br label %do.end

do.end:                                           ; preds = %do.body
  %0 = load ptr, ptr %emitter.addr, align 8
  %emitted_key = getelementptr inbounds %struct.emitter_s, ptr %0, i32 0, i32 5
  %1 = load i8, ptr %emitted_key, align 1
  %tobool = trunc i8 %1 to i1
  br i1 %tobool, label %if.then, label %if.end

if.then:                                          ; preds = %do.end
  %2 = load ptr, ptr %emitter.addr, align 8
  %emitted_key1 = getelementptr inbounds %struct.emitter_s, ptr %2, i32 0, i32 5
  store i8 0, ptr %emitted_key1, align 1
  br label %if.end6

if.end:                                           ; preds = %do.end
  %3 = load ptr, ptr %emitter.addr, align 8
  %item_at_depth = getelementptr inbounds %struct.emitter_s, ptr %3, i32 0, i32 4
  %4 = load i8, ptr %item_at_depth, align 4
  %tobool2 = trunc i8 %4 to i1
  br i1 %tobool2, label %if.then3, label %if.end4

if.then3:                                         ; preds = %if.end
  %5 = load ptr, ptr %emitter.addr, align 8
  call void (ptr, ptr, ...) @emitter_printf(ptr noundef %5, ptr noundef @.str.32)
  br label %if.end4

if.end4:                                          ; preds = %if.then3, %if.end
  %6 = load ptr, ptr %emitter.addr, align 8
  %output = getelementptr inbounds %struct.emitter_s, ptr %6, i32 0, i32 0
  %7 = load i32, ptr %output, align 8
  %cmp = icmp ne i32 %7, 1
  br i1 %cmp, label %if.then5, label %if.end6

if.then5:                                         ; preds = %if.end4
  %8 = load ptr, ptr %emitter.addr, align 8
  call void (ptr, ptr, ...) @emitter_printf(ptr noundef %8, ptr noundef @.str.33)
  %9 = load ptr, ptr %emitter.addr, align 8
  call void @emitter_indent(ptr noundef %9)
  br label %if.end6

if.end6:                                          ; preds = %if.then5, %if.end4, %if.then
  ret void
}

; Function Attrs: nounwind uwtable
define internal zeroext i1 @emitter_outputs_json(ptr noundef %emitter) #0 {
entry:
  %emitter.addr = alloca ptr, align 8
  store ptr %emitter, ptr %emitter.addr, align 8
  %0 = load ptr, ptr %emitter.addr, align 8
  %output = getelementptr inbounds %struct.emitter_s, ptr %0, i32 0, i32 0
  %1 = load i32, ptr %output, align 8
  %cmp = icmp eq i32 %1, 0
  br i1 %cmp, label %lor.end, label %lor.rhs

lor.rhs:                                          ; preds = %entry
  %2 = load ptr, ptr %emitter.addr, align 8
  %output1 = getelementptr inbounds %struct.emitter_s, ptr %2, i32 0, i32 0
  %3 = load i32, ptr %output1, align 8
  %cmp2 = icmp eq i32 %3, 1
  br label %lor.end

lor.end:                                          ; preds = %lor.rhs, %entry
  %4 = phi i1 [ true, %entry ], [ %cmp2, %lor.rhs ]
  ret i1 %4
}

; Function Attrs: nounwind uwtable
define internal void @emitter_json_key(ptr noundef %emitter, ptr noundef %json_key) #0 {
entry:
  %emitter.addr = alloca ptr, align 8
  %json_key.addr = alloca ptr, align 8
  store ptr %emitter, ptr %emitter.addr, align 8
  store ptr %json_key, ptr %json_key.addr, align 8
  %0 = load ptr, ptr %emitter.addr, align 8
  %call = call zeroext i1 @emitter_outputs_json(ptr noundef %0)
  br i1 %call, label %if.then, label %if.end

if.then:                                          ; preds = %entry
  %1 = load ptr, ptr %emitter.addr, align 8
  call void @emitter_json_key_prefix(ptr noundef %1)
  %2 = load ptr, ptr %emitter.addr, align 8
  %3 = load ptr, ptr %json_key.addr, align 8
  %4 = load ptr, ptr %emitter.addr, align 8
  %output = getelementptr inbounds %struct.emitter_s, ptr %4, i32 0, i32 0
  %5 = load i32, ptr %output, align 8
  %cmp = icmp eq i32 %5, 1
  %cond = select i1 %cmp, ptr @.str.29, ptr @.str.31
  call void (ptr, ptr, ...) @emitter_printf(ptr noundef %2, ptr noundef @.str.30, ptr noundef %3, ptr noundef %cond)
  %6 = load ptr, ptr %emitter.addr, align 8
  %emitted_key = getelementptr inbounds %struct.emitter_s, ptr %6, i32 0, i32 5
  store i8 1, ptr %emitted_key, align 1
  br label %if.end

if.end:                                           ; preds = %if.then, %entry
  ret void
}