; Function Attrs: nounwind uwtable
define internal fastcc void @emitter_json_key(ptr nocapture noundef %emitter, ptr noundef %json_key) unnamed_addr #0 {
entry:
  %emitter.val = load i32, ptr %emitter, align 8
  %spec.select.i = icmp ult i32 %emitter.val, 2
  br i1 %spec.select.i, label %if.then, label %if.end

if.then:                                          ; preds = %entry
  %emitted_key.i = getelementptr inbounds i8, ptr %emitter, i64 29
  %0 = load i8, ptr %emitted_key.i, align 1
  %1 = and i8 %0, 1
  %tobool.not.i = icmp eq i8 %1, 0
  br i1 %tobool.not.i, label %if.end.i, label %if.then.i

if.then.i:                                        ; preds = %if.then
  store i8 0, ptr %emitted_key.i, align 1
  br label %emitter_json_key_prefix.exit

if.end.i:                                         ; preds = %if.then
  %item_at_depth.i = getelementptr inbounds i8, ptr %emitter, i64 28
  %2 = load i8, ptr %item_at_depth.i, align 4
  %3 = and i8 %2, 1
  %tobool2.not.i = icmp eq i8 %3, 0
  br i1 %tobool2.not.i, label %if.end4.i, label %if.then3.i

if.then3.i:                                       ; preds = %if.end.i
  tail call void (ptr, ptr, ...) @emitter_printf(ptr noundef nonnull %emitter, ptr noundef nonnull @.str.32)
  %.pre = load i32, ptr %emitter, align 8
  br label %if.end4.i

if.end4.i:                                        ; preds = %if.then3.i, %if.end.i
  %4 = phi i32 [ %.pre, %if.then3.i ], [ %emitter.val, %if.end.i ]
  %cmp.not.i = icmp eq i32 %4, 1
  br i1 %cmp.not.i, label %emitter_json_key_prefix.exit.thread, label %if.then5.i

if.then5.i:                                       ; preds = %if.end4.i
  tail call void (ptr, ptr, ...) @emitter_printf(ptr noundef nonnull %emitter, ptr noundef nonnull @.str.33)
  %nesting_depth.i.i = getelementptr inbounds i8, ptr %emitter, i64 24
  %5 = load i32, ptr %nesting_depth.i.i, align 8
  %6 = load i32, ptr %emitter, align 8
  %cmp.i.i = icmp ne i32 %6, 0
  %indent_str.0.i.i = select i1 %cmp.i.i, ptr @.str.31, ptr @.str.34
  %cmp15.i.i = icmp sgt i32 %5, 0
  br i1 %cmp15.i.i, label %for.body.preheader.i.i, label %emitter_json_key_prefix.exit

for.body.preheader.i.i:                           ; preds = %if.then5.i
  %mul.i.i = zext i1 %cmp.i.i to i32
  %amount.0.i.i = shl nuw nsw i32 %5, %mul.i.i
  %smax.i.i = tail call i32 @llvm.smax.i32(i32 %amount.0.i.i, i32 1)
  br label %for.body.i.i

for.body.i.i:                                     ; preds = %for.body.i.i, %for.body.preheader.i.i
  %i.06.i.i = phi i32 [ %inc.i.i, %for.body.i.i ], [ 0, %for.body.preheader.i.i ]
  tail call void (ptr, ptr, ...) @emitter_printf(ptr noundef nonnull %emitter, ptr noundef nonnull @.str.28, ptr noundef nonnull %indent_str.0.i.i)
  %inc.i.i = add nuw nsw i32 %i.06.i.i, 1
  %exitcond.not.i.i = icmp eq i32 %inc.i.i, %smax.i.i
  br i1 %exitcond.not.i.i, label %emitter_json_key_prefix.exit.loopexit, label %for.body.i.i, !llvm.loop !7

emitter_json_key_prefix.exit.loopexit:            ; preds = %for.body.i.i
  %.pre5 = load i32, ptr %emitter, align 8
  br label %emitter_json_key_prefix.exit

emitter_json_key_prefix.exit:                     ; preds = %emitter_json_key_prefix.exit.loopexit, %if.then.i, %if.then5.i
  %7 = phi i32 [ %.pre5, %emitter_json_key_prefix.exit.loopexit ], [ %emitter.val, %if.then.i ], [ %6, %if.then5.i ]
  %.fr = freeze i32 %7
  %cmp = icmp eq i32 %.fr, 1
  br i1 %cmp, label %emitter_json_key_prefix.exit.thread, label %8

emitter_json_key_prefix.exit.thread:              ; preds = %if.end4.i, %emitter_json_key_prefix.exit
  br label %8

8:                                                ; preds = %emitter_json_key_prefix.exit, %emitter_json_key_prefix.exit.thread
  %9 = phi ptr [ @.str.29, %emitter_json_key_prefix.exit.thread ], [ @.str.31, %emitter_json_key_prefix.exit ]
  tail call void (ptr, ptr, ...) @emitter_printf(ptr noundef nonnull %emitter, ptr noundef nonnull @.str.30, ptr noundef %json_key, ptr noundef nonnull %9)
  store i8 1, ptr %emitted_key.i, align 1
  br label %if.end

if.end:                                           ; preds = %8, %entry
  ret void
}